(i__main__
LogFile
p0
(dp1
S'_installed_files'
p2
(dp3
S'../../../Examples/HelloWorld/amd64_linux26/libHelloWorld.so'
p4
S'../../../InstallArea/amd64_linux26/lib/libHelloWorld.so'
p5
sS'../Examples/HelloWorld/python'
p6
(dp7
S'../../../Examples/HelloWorld/python/HelloWorld/__init__.py'
p8
S'../../../InstallArea/python/HelloWorld/__init__.py'
p9
sS'../../../Examples/HelloWorld/python/HelloWorld/HelloPy.py'
p10
S'../../../InstallArea/python/HelloWorld/HelloPy.py'
p11
sssb.