(i__main__
LogFile
p0
(dp1
S'_installed_files'
p2
(dp3
S'../../../Examples/DummyAlg/amd64_linux26/libDummyAlg.so'
p4
S'../../../InstallArea/amd64_linux26/lib/libDummyAlg.so'
p5
sS'../Examples/DummyAlg/python'
p6
(dp7
S'../../../Examples/DummyAlg/python/DummyAlg/__init__.py'
p8
S'../../../InstallArea/python/DummyAlg/__init__.py'
p9
sssb.